target datalayout = "e-m:e-p270:32:32-p271:32:32-p272:64:64-i64:64-i128:128-f80:128-n8:16:32:64-S128"
target triple = "x86_64-pc-linux-gnu"

%"struct.google::protobuf::internal::EnumEntry" = type <{ %"class.google::protobuf::StringPiece", i32, [4 x i8] }>
%"class.google::protobuf::StringPiece" = type { ptr, i64 }
%"class.google::protobuf::internal::ExplicitlyConstructed.7" = type { %"union.google::protobuf::internal::ExplicitlyConstructed<std::__cxx11::basic_string<char>>::AlignedUnion" }
%"union.google::protobuf::internal::ExplicitlyConstructed<std::__cxx11::basic_string<char>>::AlignedUnion" = type { i64, [24 x i8] }
%"struct.std::atomic.15" = type { %"struct.std::__atomic_base.16" }
%"struct.std::__atomic_base.16" = type { i8 }
%"union.google::protobuf::internal::EmptyString" = type { %"class.std::__cxx11::basic_string" }
%"class.std::__cxx11::basic_string" = type { %"struct.std::__cxx11::basic_string<char>::_Alloc_hider", i64, %union.anon }
%"struct.std::__cxx11::basic_string<char>::_Alloc_hider" = type { ptr }
%union.anon = type { i64, [8 x i8] }

@_ZN13sentencepieceL37ModelProto_SentencePiece_Type_entriesE = internal global [6 x %"struct.google::protobuf::internal::EnumEntry"] zeroinitializer, align 16
@_ZZN13sentencepiece34ModelProto_SentencePiece_Type_NameB5cxx11ENS_29ModelProto_SentencePiece_TypeEE5dummy = internal global i8 0, align 1
@_ZGVZN13sentencepiece34ModelProto_SentencePiece_Type_NameB5cxx11ENS_29ModelProto_SentencePiece_TypeEE5dummy = internal global i64 0, align 8
@_ZN13sentencepieceL47ModelProto_SentencePiece_Type_entries_by_numberE = internal constant [6 x i32] [i32 2, i32 3, i32 1, i32 5, i32 4, i32 0], align 16
@_ZN13sentencepieceL37ModelProto_SentencePiece_Type_stringsB5cxx11E = internal global [6 x %"class.google::protobuf::internal::ExplicitlyConstructed.7"] zeroinitializer, align 16
@_ZN6google8protobuf8internal28init_protobuf_defaults_stateE = external global %"struct.std::atomic.15", align 1
@_ZN6google8protobuf8internal26fixed_address_empty_stringE = external global %"union.google::protobuf::internal::EmptyString", align 8

; Function Attrs: noinline noreturn nounwind uwtable
define linkonce_odr hidden void @__clang_call_terminate(ptr noundef %0) #13 comdat {
  %2 = call ptr @__cxa_begin_catch(ptr %0) #3
  call void @_ZSt9terminatev() #22
  unreachable
}

; Function Attrs: mustprogress nounwind uwtable
define linkonce_odr noundef i32 @_ZStanSt12memory_orderSt23__memory_order_modifier(i32 noundef %0, i32 noundef %1) #5 comdat {
  %3 = alloca i32, align 4
  %4 = alloca i32, align 4
  store i32 %0, ptr %3, align 4, !tbaa !232
  store i32 %1, ptr %4, align 4, !tbaa !236
  %5 = load i32, ptr %3, align 4, !tbaa !232
  %6 = load i32, ptr %4, align 4, !tbaa !236
  %7 = and i32 %5, %6
  ret i32 %7
}

; Function Attrs: alwaysinline mustprogress nounwind uwtable
define linkonce_odr noundef zeroext i1 @_ZNKSt13__atomic_baseIbE4loadESt12memory_order(ptr noundef nonnull align 1 dereferenceable(1) %0, i32 noundef %1) #8 comdat align 2 personality ptr @__gxx_personality_v0 {
  %3 = alloca ptr, align 8
  %4 = alloca i32, align 4
  %5 = alloca i32, align 4
  %6 = alloca i8, align 1
  store ptr %0, ptr %3, align 8, !tbaa !234
  store i32 %1, ptr %4, align 4, !tbaa !232
  %7 = load ptr, ptr %3, align 8
  call void @llvm.lifetime.start.p0(i64 4, ptr %5) #3
  %8 = load i32, ptr %4, align 4, !tbaa !232
  %9 = invoke noundef i32 @_ZStanSt12memory_orderSt23__memory_order_modifier(i32 noundef %8, i32 noundef 65535)
          to label %10 unwind label %28

10:                                               ; preds = %2
  store i32 %9, ptr %5, align 4, !tbaa !232
  br label %11

11:                                               ; preds = %10
  br label %12

12:                                               ; preds = %11
  br label %13

13:                                               ; preds = %12
  br label %14

14:                                               ; preds = %13
  br label %15

15:                                               ; preds = %14
  br label %16

16:                                               ; preds = %15
  %17 = getelementptr inbounds nuw %"struct.std::__atomic_base.16", ptr %7, i32 0, i32 0
  %18 = load i32, ptr %4, align 4, !tbaa !232
  switch i32 %18, label %19 [
    i32 1, label %21
    i32 2, label %21
    i32 5, label %23
  ]

19:                                               ; preds = %16
  %20 = load atomic i8, ptr %17 monotonic, align 1
  store i8 %20, ptr %6, align 1
  br label %25

21:                                               ; preds = %16, %16
  %22 = load atomic i8, ptr %17 acquire, align 1
  store i8 %22, ptr %6, align 1
  br label %25

23:                                               ; preds = %16
  %24 = load atomic i8, ptr %17 seq_cst, align 1
  store i8 %24, ptr %6, align 1
  br label %25

25:                                               ; preds = %23, %21, %19
  %26 = load i8, ptr %6, align 1, !tbaa !23, !range !29, !noundef !30
  %27 = trunc i8 %26 to i1
  call void @llvm.lifetime.end.p0(i64 4, ptr %5) #3
  ret i1 %27

28:                                               ; preds = %2
  %29 = landingpad { ptr, i32 }
          catch ptr null
  %30 = extractvalue { ptr, i32 } %29, 0
  call void @__clang_call_terminate(ptr %30) #22
  unreachable
}

; Function Attrs: mustprogress nounwind uwtable
define linkonce_odr noundef zeroext i1 @_ZNKSt6atomicIbE4loadESt12memory_order(ptr noundef nonnull align 1 dereferenceable(1) %0, i32 noundef %1) #5 comdat align 2 {
  %3 = alloca ptr, align 8
  %4 = alloca i32, align 4
  store ptr %0, ptr %3, align 8, !tbaa !230
  store i32 %1, ptr %4, align 4, !tbaa !232
  %5 = load ptr, ptr %3, align 8
  %6 = getelementptr inbounds nuw %"struct.std::atomic.15", ptr %5, i32 0, i32 0
  %7 = load i32, ptr %4, align 4, !tbaa !232
  %8 = call noundef zeroext i1 @_ZNKSt13__atomic_baseIbE4loadESt12memory_order(ptr noundef nonnull align 1 dereferenceable(1) %6, i32 noundef %7) #3
  ret i1 %8
}

; Function Attrs: mustprogress nounwind uwtable
define linkonce_odr noundef nonnull align 8 dereferenceable(32) ptr @_ZN6google8protobuf8internal27GetEmptyStringAlreadyInitedB5cxx11Ev() #5 comdat {
  ret ptr @_ZN6google8protobuf8internal26fixed_address_empty_stringE
}

; Function Attrs: inlinehint mustprogress uwtable
define linkonce_odr void @_ZN6google8protobuf8internal20InitProtobufDefaultsEv() #7 comdat {
  %1 = call noundef zeroext i1 @_ZNKSt6atomicIbE4loadESt12memory_order(ptr noundef nonnull align 1 dereferenceable(1) @_ZN6google8protobuf8internal28init_protobuf_defaults_stateE, i32 noundef 2) #3
  %2 = xor i1 %1, true
  %3 = zext i1 %2 to i64
  %4 = call i64 @llvm.expect.i64(i64 %3, i64 0)
  %5 = icmp ne i64 %4, 0
  br i1 %5, label %6, label %7

6:                                                ; preds = %0
  call void @_ZN6google8protobuf8internal24InitProtobufDefaultsSlowEv()
  br label %7

7:                                                ; preds = %6, %0
  ret void
}

; Function Attrs: mustprogress nounwind uwtable
define linkonce_odr noundef nonnull align 8 dereferenceable(32) ptr @_ZNK6google8protobuf8internal21ExplicitlyConstructedINSt7__cxx1112basic_stringIcSt11char_traitsIcESaIcEEEE3getEv(ptr noundef nonnull align 8 dereferenceable(32) %0) #5 comdat align 2 {
  %2 = alloca ptr, align 8
  store ptr %0, ptr %2, align 8, !tbaa !25
  %3 = load ptr, ptr %2, align 8
  %4 = getelementptr inbounds nuw %"class.google::protobuf::internal::ExplicitlyConstructed.7", ptr %3, i32 0, i32 0
  ret ptr %4
}

; Function Attrs: inlinehint mustprogress uwtable
define linkonce_odr noundef nonnull align 8 dereferenceable(32) ptr @_ZN6google8protobuf8internal14GetEmptyStringB5cxx11Ev() #7 comdat {
  call void @_ZN6google8protobuf8internal20InitProtobufDefaultsEv()
  %1 = call noundef nonnull align 8 dereferenceable(32) ptr @_ZN6google8protobuf8internal27GetEmptyStringAlreadyInitedB5cxx11Ev()
  ret ptr %1
}

; Function Attrs: mustprogress uwtable
define noundef nonnull align 8 dereferenceable(32) ptr @_ZN13sentencepiece34ModelProto_SentencePiece_Type_NameB5cxx11ENS_29ModelProto_SentencePiece_TypeE(i32 noundef %0) #4 personality ptr @__gxx_personality_v0 {
  %2 = alloca i32, align 4
  %3 = alloca ptr, align 8
  %4 = alloca i32, align 4
  %5 = alloca i32, align 4
  store i32 %0, ptr %2, align 4, !tbaa !31
  %6 = load atomic i8, ptr @_ZGVZN13sentencepiece34ModelProto_SentencePiece_Type_NameB5cxx11ENS_29ModelProto_SentencePiece_TypeEE5dummy acquire, align 8
  %7 = icmp eq i8 %6, 0
  br i1 %7, label %8, label %16, !prof !22

8:                                                ; preds = %1
  %9 = call i32 @__cxa_guard_acquire(ptr @_ZGVZN13sentencepiece34ModelProto_SentencePiece_Type_NameB5cxx11ENS_29ModelProto_SentencePiece_TypeEE5dummy) #3
  %10 = icmp ne i32 %9, 0
  br i1 %10, label %11, label %16

11:                                               ; preds = %8
  %12 = invoke noundef zeroext i1 @_ZN6google8protobuf8internal21InitializeEnumStringsEPKNS1_9EnumEntryEPKimPNS1_21ExplicitlyConstructedINSt7__cxx1112basic_stringIcSt11char_traitsIcESaIcEEEEE(ptr noundef @_ZN13sentencepieceL37ModelProto_SentencePiece_Type_entriesE, ptr noundef @_ZN13sentencepieceL47ModelProto_SentencePiece_Type_entries_by_numberE, i64 noundef 6, ptr noundef @_ZN13sentencepieceL37ModelProto_SentencePiece_Type_stringsB5cxx11E)
          to label %13 unwind label %30

13:                                               ; preds = %11
  %14 = zext i1 %12 to i8
  store i8 %14, ptr @_ZZN13sentencepiece34ModelProto_SentencePiece_Type_NameB5cxx11ENS_29ModelProto_SentencePiece_TypeEE5dummy, align 1, !tbaa !23
  %15 = call ptr @llvm.invariant.start.p0(i64 1, ptr @_ZZN13sentencepiece34ModelProto_SentencePiece_Type_NameB5cxx11ENS_29ModelProto_SentencePiece_TypeEE5dummy)
  call void @__cxa_guard_release(ptr @_ZGVZN13sentencepiece34ModelProto_SentencePiece_Type_NameB5cxx11ENS_29ModelProto_SentencePiece_TypeEE5dummy) #3
  br label %16

16:                                               ; preds = %13, %8, %1
  call void @llvm.lifetime.start.p0(i64 4, ptr %5) #3
  %17 = load i32, ptr %2, align 4, !tbaa !31
  %18 = call noundef i32 @_ZN6google8protobuf8internal14LookUpEnumNameEPKNS1_9EnumEntryEPKimi(ptr noundef @_ZN13sentencepieceL37ModelProto_SentencePiece_Type_entriesE, ptr noundef @_ZN13sentencepieceL47ModelProto_SentencePiece_Type_entries_by_numberE, i64 noundef 6, i32 noundef %17)
  store i32 %18, ptr %5, align 4, !tbaa !7
  %19 = load i32, ptr %5, align 4, !tbaa !7
  %20 = icmp eq i32 %19, -1
  br i1 %20, label %21, label %23

21:                                               ; preds = %16
  %22 = call noundef nonnull align 8 dereferenceable(32) ptr @_ZN6google8protobuf8internal14GetEmptyStringB5cxx11Ev()
  br label %28

23:                                               ; preds = %16
  %24 = load i32, ptr %5, align 4, !tbaa !7
  %25 = sext i32 %24 to i64
  %26 = getelementptr inbounds [6 x %"class.google::protobuf::internal::ExplicitlyConstructed.7"], ptr @_ZN13sentencepieceL37ModelProto_SentencePiece_Type_stringsB5cxx11E, i64 0, i64 %25
  %27 = call noundef nonnull align 8 dereferenceable(32) ptr @_ZNK6google8protobuf8internal21ExplicitlyConstructedINSt7__cxx1112basic_stringIcSt11char_traitsIcESaIcEEEE3getEv(ptr noundef nonnull align 8 dereferenceable(32) %26)
  br label %28

28:                                               ; preds = %23, %21
  %29 = phi ptr [ %22, %21 ], [ %27, %23 ]
  call void @llvm.lifetime.end.p0(i64 4, ptr %5) #3
  ret ptr %29

30:                                               ; preds = %11
  %31 = landingpad { ptr, i32 }
          cleanup
  %32 = extractvalue { ptr, i32 } %31, 0
  store ptr %32, ptr %3, align 8
  %33 = extractvalue { ptr, i32 } %31, 1
  store i32 %33, ptr %4, align 4
  call void @__cxa_guard_abort(ptr @_ZGVZN13sentencepiece34ModelProto_SentencePiece_Type_NameB5cxx11ENS_29ModelProto_SentencePiece_TypeEE5dummy) #3
  br label %34

34:                                               ; preds = %30
  %35 = load ptr, ptr %3, align 8
  %36 = load i32, ptr %4, align 4
  %37 = insertvalue { ptr, i32 } poison, ptr %35, 0
  %38 = insertvalue { ptr, i32 } %37, i32 %36, 1
  resume { ptr, i32 } %38
}